target datalayout = "e-m:e-p270:32:32-p271:32:32-p272:64:64-i64:64-i128:128-f80:128-n8:16:32:64-S128"
target triple = "x86_64-pc-linux-gnu"

%struct.AVBSFContext = type { ptr, ptr, ptr, ptr, ptr, %struct.AVRational, %struct.AVRational }
%struct.AVRational = type { i32, i32 }
%struct.CBSBSFContext = type { ptr, ptr, ptr, ptr, %struct.CodedBitstreamFragment }
%struct.CodedBitstreamFragment = type { ptr, i64, i64, ptr, i32, i32, ptr }
%struct.CBSBSFType = type { i32, ptr, ptr, ptr }
%struct.CodedBitstreamContext = type { ptr, ptr, ptr, ptr, i32, i32, i32, ptr, ptr, ptr, ptr, i64 }
%struct.AVCodecParameters = type { i32, i32, i32, ptr, i32, ptr, i32, i32, i64, i32, i32, i32, i32, i32, i32, %struct.AVRational, %struct.AVRational, i32, i32, i32, i32, i32, i32, i32, %struct.AVChannelLayout, i32, i32, i32, i32, i32, i32 }
%struct.AVChannelLayout = type { i32, i32, %union.anon, ptr }
%union.anon = type { i64 }

@.str.3 = private unnamed_addr constant [27 x i8] c"Failed to read extradata.\0A\00", align 1
@.str.4 = private unnamed_addr constant [28 x i8] c"Failed to write extradata.\0A\00", align 1

; Function Attrs: nounwind uwtable
define i32 @ff_cbs_bsf_generic_init(ptr noundef %0, ptr noundef %1) #0 {
  %3 = alloca i32, align 4
  %4 = alloca ptr, align 8
  %5 = alloca ptr, align 8
  %6 = alloca ptr, align 8
  %7 = alloca ptr, align 8
  %8 = alloca i32, align 4
  %9 = alloca i32, align 4
  store ptr %0, ptr %4, align 8, !tbaa !4
  store ptr %1, ptr %5, align 8, !tbaa !42
  call void @llvm.lifetime.start.p0(i64 8, ptr %6) #4
  %10 = load ptr, ptr %4, align 8, !tbaa !4
  %11 = getelementptr inbounds nuw %struct.AVBSFContext, ptr %10, i32 0, i32 2
  %12 = load ptr, ptr %11, align 8, !tbaa !11
  store ptr %12, ptr %6, align 8, !tbaa !18
  call void @llvm.lifetime.start.p0(i64 8, ptr %7) #4
  %13 = load ptr, ptr %6, align 8, !tbaa !18
  %14 = getelementptr inbounds nuw %struct.CBSBSFContext, ptr %13, i32 0, i32 4
  store ptr %14, ptr %7, align 8, !tbaa !20
  call void @llvm.lifetime.start.p0(i64 4, ptr %8) #4
  %15 = load ptr, ptr %5, align 8, !tbaa !42
  %16 = load ptr, ptr %6, align 8, !tbaa !18
  %17 = getelementptr inbounds nuw %struct.CBSBSFContext, ptr %16, i32 0, i32 1
  store ptr %15, ptr %17, align 8, !tbaa !32
  %18 = load ptr, ptr %6, align 8, !tbaa !18
  %19 = getelementptr inbounds nuw %struct.CBSBSFContext, ptr %18, i32 0, i32 2
  %20 = load ptr, ptr %5, align 8, !tbaa !42
  %21 = getelementptr inbounds nuw %struct.CBSBSFType, ptr %20, i32 0, i32 0
  %22 = load i32, ptr %21, align 8, !tbaa !43
  %23 = load ptr, ptr %4, align 8, !tbaa !4
  %24 = call i32 @ff_cbs_init(ptr noundef %19, i32 noundef %22, ptr noundef %23)
  store i32 %24, ptr %8, align 4, !tbaa !22
  %25 = load i32, ptr %8, align 4, !tbaa !22
  %26 = icmp slt i32 %25, 0
  br i1 %26, label %27, label %29

27:                                               ; preds = %2
  %28 = load i32, ptr %8, align 4, !tbaa !22
  store i32 %28, ptr %3, align 4
  store i32 1, ptr %9, align 4
  br label %108

29:                                               ; preds = %2
  %30 = load ptr, ptr %6, align 8, !tbaa !18
  %31 = getelementptr inbounds nuw %struct.CBSBSFContext, ptr %30, i32 0, i32 3
  %32 = load ptr, ptr %5, align 8, !tbaa !42
  %33 = getelementptr inbounds nuw %struct.CBSBSFType, ptr %32, i32 0, i32 0
  %34 = load i32, ptr %33, align 8, !tbaa !43
  %35 = load ptr, ptr %4, align 8, !tbaa !4
  %36 = call i32 @ff_cbs_init(ptr noundef %31, i32 noundef %34, ptr noundef %35)
  store i32 %36, ptr %8, align 4, !tbaa !22
  %37 = load i32, ptr %8, align 4, !tbaa !22
  %38 = icmp slt i32 %37, 0
  br i1 %38, label %39, label %41

39:                                               ; preds = %29
  %40 = load i32, ptr %8, align 4, !tbaa !22
  store i32 %40, ptr %3, align 4
  store i32 1, ptr %9, align 4
  br label %108

41:                                               ; preds = %29
  %42 = load ptr, ptr %6, align 8, !tbaa !18
  %43 = getelementptr inbounds nuw %struct.CBSBSFContext, ptr %42, i32 0, i32 3
  %44 = load ptr, ptr %43, align 8, !tbaa !38
  %45 = getelementptr inbounds nuw %struct.CodedBitstreamContext, ptr %44, i32 0, i32 5
  store i32 1, ptr %45, align 4, !tbaa !44
  %46 = load ptr, ptr %6, align 8, !tbaa !18
  %47 = getelementptr inbounds nuw %struct.CBSBSFContext, ptr %46, i32 0, i32 3
  %48 = load ptr, ptr %47, align 8, !tbaa !38
  %49 = getelementptr inbounds nuw %struct.CodedBitstreamContext, ptr %48, i32 0, i32 6
  store i32 56, ptr %49, align 8, !tbaa !48
  %50 = load ptr, ptr %6, align 8, !tbaa !18
  %51 = getelementptr inbounds nuw %struct.CBSBSFContext, ptr %50, i32 0, i32 3
  %52 = load ptr, ptr %51, align 8, !tbaa !38
  %53 = load ptr, ptr %6, align 8, !tbaa !18
  %54 = getelementptr inbounds nuw %struct.CBSBSFContext, ptr %53, i32 0, i32 3
  %55 = load ptr, ptr %54, align 8, !tbaa !38
  %56 = getelementptr inbounds nuw %struct.CodedBitstreamContext, ptr %55, i32 0, i32 7
  store ptr %52, ptr %56, align 8, !tbaa !49
  %57 = load ptr, ptr %6, align 8, !tbaa !18
  %58 = getelementptr inbounds nuw %struct.CBSBSFContext, ptr %57, i32 0, i32 3
  %59 = load ptr, ptr %58, align 8, !tbaa !38
  %60 = getelementptr inbounds nuw %struct.CodedBitstreamContext, ptr %59, i32 0, i32 9
  store ptr @ff_cbs_trace_write_log, ptr %60, align 8, !tbaa !50
  %61 = load ptr, ptr %4, align 8, !tbaa !4
  %62 = getelementptr inbounds nuw %struct.AVBSFContext, ptr %61, i32 0, i32 3
  %63 = load ptr, ptr %62, align 8, !tbaa !51
  %64 = getelementptr inbounds nuw %struct.AVCodecParameters, ptr %63, i32 0, i32 3
  %65 = load ptr, ptr %64, align 8, !tbaa !52
  %66 = icmp ne ptr %65, null
  br i1 %66, label %67, label %104

67:                                               ; preds = %41
  %68 = load ptr, ptr %6, align 8, !tbaa !18
  %69 = getelementptr inbounds nuw %struct.CBSBSFContext, ptr %68, i32 0, i32 2
  %70 = load ptr, ptr %69, align 8, !tbaa !23
  %71 = load ptr, ptr %7, align 8, !tbaa !20
  %72 = load ptr, ptr %4, align 8, !tbaa !4
  %73 = getelementptr inbounds nuw %struct.AVBSFContext, ptr %72, i32 0, i32 3
  %74 = load ptr, ptr %73, align 8, !tbaa !51
  %75 = call i32 @ff_cbs_read_extradata(ptr noundef %70, ptr noundef %71, ptr noundef %74)
  store i32 %75, ptr %8, align 4, !tbaa !22
  %76 = load i32, ptr %8, align 4, !tbaa !22
  %77 = icmp slt i32 %76, 0
  br i1 %77, label %78, label %80

78:                                               ; preds = %67
  %79 = load ptr, ptr %4, align 8, !tbaa !4
  call void (ptr, i32, ptr, ...) @av_log(ptr noundef %79, i32 noundef 16, ptr noundef @.str.3)
  br label %105

80:                                               ; preds = %67
  %81 = load ptr, ptr %5, align 8, !tbaa !42
  %82 = getelementptr inbounds nuw %struct.CBSBSFType, ptr %81, i32 0, i32 3
  %83 = load ptr, ptr %82, align 8, !tbaa !37
  %84 = load ptr, ptr %4, align 8, !tbaa !4
  %85 = load ptr, ptr %7, align 8, !tbaa !20
  %86 = call i32 %83(ptr noundef %84, ptr noundef null, ptr noundef %85)
  store i32 %86, ptr %8, align 4, !tbaa !22
  %87 = load i32, ptr %8, align 4, !tbaa !22
  %88 = icmp slt i32 %87, 0
  br i1 %88, label %89, label %90

89:                                               ; preds = %80
  br label %105

90:                                               ; preds = %80
  %91 = load ptr, ptr %6, align 8, !tbaa !18
  %92 = getelementptr inbounds nuw %struct.CBSBSFContext, ptr %91, i32 0, i32 3
  %93 = load ptr, ptr %92, align 8, !tbaa !38
  %94 = load ptr, ptr %4, align 8, !tbaa !4
  %95 = getelementptr inbounds nuw %struct.AVBSFContext, ptr %94, i32 0, i32 4
  %96 = load ptr, ptr %95, align 8, !tbaa !56
  %97 = load ptr, ptr %7, align 8, !tbaa !20
  %98 = call i32 @ff_cbs_write_extradata(ptr noundef %93, ptr noundef %96, ptr noundef %97)
  store i32 %98, ptr %8, align 4, !tbaa !22
  %99 = load i32, ptr %8, align 4, !tbaa !22
  %100 = icmp slt i32 %99, 0
  br i1 %100, label %101, label %103

101:                                              ; preds = %90
  %102 = load ptr, ptr %4, align 8, !tbaa !4
  call void (ptr, i32, ptr, ...) @av_log(ptr noundef %102, i32 noundef 16, ptr noundef @.str.4)
  br label %105

103:                                              ; preds = %90
  br label %104

104:                                              ; preds = %103, %41
  store i32 0, ptr %8, align 4, !tbaa !22
  br label %105

105:                                              ; preds = %104, %101, %89, %78
  %106 = load ptr, ptr %7, align 8, !tbaa !20
  call void @ff_cbs_fragment_reset(ptr noundef %106)
  %107 = load i32, ptr %8, align 4, !tbaa !22
  store i32 %107, ptr %3, align 4
  store i32 1, ptr %9, align 4
  br label %108

108:                                              ; preds = %105, %39, %27
  call void @llvm.lifetime.end.p0(i64 4, ptr %8) #4
  call void @llvm.lifetime.end.p0(i64 8, ptr %7) #4
  call void @llvm.lifetime.end.p0(i64 8, ptr %6) #4
  %109 = load i32, ptr %3, align 4
  ret i32 %109
}