; Function Attrs: nounwind uwtable
define range(i32 -2147483648, 1) i32 @ff_cbs_bsf_generic_init(ptr noundef %0, ptr noundef %1) local_unnamed_addr #0 {
  %3 = getelementptr inbounds nuw i8, ptr %0, i64 16
  %4 = load ptr, ptr %3, align 8, !tbaa !4
  %5 = getelementptr inbounds nuw i8, ptr %4, i64 32
  %6 = getelementptr inbounds nuw i8, ptr %4, i64 8
  store ptr %1, ptr %6, align 8, !tbaa !23
  %7 = getelementptr inbounds nuw i8, ptr %4, i64 16
  %8 = load i32, ptr %1, align 8, !tbaa !32
  %9 = tail call i32 @ff_cbs_init(ptr noundef nonnull %7, i32 noundef %8, ptr noundef %0) #3
  %10 = icmp slt i32 %9, 0
  br i1 %10, label %42, label %11

11:                                               ; preds = %2
  %12 = getelementptr inbounds nuw i8, ptr %4, i64 24
  %13 = load i32, ptr %1, align 8, !tbaa !32
  %14 = tail call i32 @ff_cbs_init(ptr noundef nonnull %12, i32 noundef %13, ptr noundef nonnull %0) #3
  %15 = icmp slt i32 %14, 0
  br i1 %15, label %42, label %16

16:                                               ; preds = %11
  %17 = load ptr, ptr %12, align 8, !tbaa !26
  %18 = getelementptr inbounds nuw i8, ptr %17, i64 36
  store i32 1, ptr %18, align 4, !tbaa !33
  %19 = getelementptr inbounds nuw i8, ptr %17, i64 40
  store i32 56, ptr %19, align 8, !tbaa !37
  %20 = getelementptr inbounds nuw i8, ptr %17, i64 48
  store ptr %17, ptr %20, align 8, !tbaa !38
  %21 = getelementptr inbounds nuw i8, ptr %17, i64 64
  store ptr @ff_cbs_trace_write_log, ptr %21, align 8, !tbaa !39
  %22 = getelementptr inbounds nuw i8, ptr %0, i64 24
  %23 = load ptr, ptr %22, align 8, !tbaa !40
  %24 = getelementptr inbounds nuw i8, ptr %23, i64 16
  %25 = load ptr, ptr %24, align 8, !tbaa !41
  %.not = icmp eq ptr %25, null
  br i1 %.not, label %41, label %26

26:                                               ; preds = %16
  %27 = load ptr, ptr %7, align 8, !tbaa !14
  %28 = tail call i32 @ff_cbs_read_extradata(ptr noundef %27, ptr noundef nonnull %5, ptr noundef nonnull %23) #3
  %29 = icmp slt i32 %28, 0
  br i1 %29, label %.sink.split, label %30

30:                                               ; preds = %26
  %31 = getelementptr inbounds nuw i8, ptr %1, i64 24
  %32 = load ptr, ptr %31, align 8, !tbaa !24
  %33 = tail call i32 %32(ptr noundef nonnull %0, ptr noundef null, ptr noundef nonnull %5) #3
  %34 = icmp slt i32 %33, 0
  br i1 %34, label %41, label %35

35:                                               ; preds = %30
  %36 = load ptr, ptr %12, align 8, !tbaa !26
  %37 = getelementptr inbounds nuw i8, ptr %0, i64 32
  %38 = load ptr, ptr %37, align 8, !tbaa !45
  %39 = tail call i32 @ff_cbs_write_extradata(ptr noundef %36, ptr noundef %38, ptr noundef nonnull %5) #3
  %40 = icmp slt i32 %39, 0
  br i1 %40, label %.sink.split, label %41

.sink.split:                                      ; preds = %35, %26
  %.str.4.sink = phi ptr [ @.str.3, %26 ], [ @.str.4, %35 ]
  %.0.ph = phi i32 [ %28, %26 ], [ %39, %35 ]
  tail call void (ptr, i32, ptr, ...) @av_log(ptr noundef nonnull %0, i32 noundef 16, ptr noundef nonnull %.str.4.sink) #3
  br label %41

41:                                               ; preds = %.sink.split, %16, %35, %30
  %.0 = phi i32 [ %33, %30 ], [ 0, %35 ], [ 0, %16 ], [ %.0.ph, %.sink.split ]
  tail call void @ff_cbs_fragment_reset(ptr noundef nonnull %5) #3
  br label %42

42:                                               ; preds = %11, %2, %41
  %.036 = phi i32 [ %.0, %41 ], [ %9, %2 ], [ %14, %11 ]
  ret i32 %.036
}